target datalayout = "e-m:e-p270:32:32-p271:32:32-p272:64:64-i64:64-i128:128-f80:128-n8:16:32:64-S128"
target triple = "x86_64-pc-linux-gnu"

%class.Register = type { i32 }
%class.XMMRegister = type { i32 }
%class.Address = type { %class.Register, %class.Register, %class.XMMRegister, i32, i32, i8, [3 x i8], %class.RelocationHolder }
%class.RelocationHolder = type { [40 x i8] }

@_ZL10r15_thread = internal constant %class.Register { i32 15 }, align 4
@_ZL5noreg = internal constant %class.Register { i32 -1 }, align 4

; Function Attrs: mustprogress nounwind uwtable
define linkonce_odr hidden noundef ptr @_ZNK16RelocationHolder5relocEv(ptr noundef nonnull align 8 dereferenceable(40) %0) #1 comdat align 2 {
  %2 = alloca ptr, align 8
  store ptr %0, ptr %2, align 8
  %3 = load ptr, ptr %2, align 8
  %4 = getelementptr inbounds %class.RelocationHolder, ptr %3, i32 0, i32 0
  %5 = getelementptr inbounds [40 x i8], ptr %4, i64 0, i64 0
  ret ptr %5
}

; Function Attrs: mustprogress nounwind uwtable
define linkonce_odr hidden void @_ZN16RelocationHolderC2ERKS_(ptr noundef nonnull align 8 dereferenceable(40) %0, ptr noundef nonnull align 8 dereferenceable(40) %1) unnamed_addr #1 comdat align 2 {
  %3 = alloca ptr, align 8
  %4 = alloca ptr, align 8
  store ptr %0, ptr %3, align 8
  store ptr %1, ptr %4, align 8
  %5 = load ptr, ptr %3, align 8
  %6 = load ptr, ptr %4, align 8
  %7 = call noundef ptr @_ZNK16RelocationHolder5relocEv(ptr noundef nonnull align 8 dereferenceable(40) %6)
  %8 = load ptr, ptr %7, align 8
  %9 = getelementptr inbounds ptr, ptr %8, i64 2
  %10 = load ptr, ptr %9, align 8
  call void %10(ptr noundef nonnull align 8 dereferenceable(20) %7, ptr noundef nonnull align 8 dereferenceable(40) %5)
  ret void
}

; Function Attrs: mustprogress nounwind uwtable
define linkonce_odr hidden void @_ZN7AddressC2ERKS_(ptr noundef nonnull align 8 dereferenceable(64) %0, ptr noundef nonnull align 8 dereferenceable(64) %1) unnamed_addr #1 comdat align 2 {
  %3 = alloca ptr, align 8
  %4 = alloca ptr, align 8
  store ptr %0, ptr %3, align 8
  store ptr %1, ptr %4, align 8
  %5 = load ptr, ptr %3, align 8
  %6 = getelementptr inbounds %class.Address, ptr %5, i32 0, i32 0
  %7 = load ptr, ptr %4, align 8
  %8 = getelementptr inbounds %class.Address, ptr %7, i32 0, i32 0
  call void @llvm.memcpy.p0.p0.i64(ptr align 8 %6, ptr align 8 %8, i64 21, i1 false)
  %9 = getelementptr inbounds %class.Address, ptr %5, i32 0, i32 7
  %10 = load ptr, ptr %4, align 8
  %11 = getelementptr inbounds %class.Address, ptr %10, i32 0, i32 7
  call void @_ZN16RelocationHolderC2ERKS_(ptr noundef nonnull align 8 dereferenceable(40) %9, ptr noundef nonnull align 8 dereferenceable(40) %11)
  ret void
}

; Function Attrs: mustprogress nounwind uwtable
define linkonce_odr hidden noundef zeroext i1 @_Z17is_reference_type9BasicTypeb(i8 noundef zeroext %0, i1 noundef zeroext %1) #1 comdat {
  %3 = alloca i8, align 1
  %4 = alloca i8, align 1
  store i8 %0, ptr %3, align 1
  %5 = zext i1 %1 to i8
  store i8 %5, ptr %4, align 1
  %6 = load i8, ptr %3, align 1
  %7 = zext i8 %6 to i32
  %8 = icmp eq i32 %7, 12
  br i1 %8, label %22, label %9

9:                                                ; preds = %2
  %10 = load i8, ptr %3, align 1
  %11 = zext i8 %10 to i32
  %12 = icmp eq i32 %11, 13
  br i1 %12, label %22, label %13

13:                                               ; preds = %9
  %14 = load i8, ptr %4, align 1
  %15 = trunc i8 %14 to i1
  br i1 %15, label %16, label %20

16:                                               ; preds = %13
  %17 = load i8, ptr %3, align 1
  %18 = zext i8 %17 to i32
  %19 = icmp eq i32 %18, 16
  br label %20

20:                                               ; preds = %16, %13
  %21 = phi i1 [ false, %13 ], [ %19, %16 ]
  br label %22

22:                                               ; preds = %20, %9, %2
  %23 = phi i1 [ true, %9 ], [ true, %2 ], [ %21, %20 ]
  ret i1 %23
}

; Function Attrs: mustprogress nounwind uwtable
define hidden void @_ZN21G1BarrierSetAssembler7load_atEP14MacroAssemblerm9BasicType8Register7AddressS3_S3_(ptr noundef nonnull align 8 dereferenceable(8) %0, ptr noundef %1, i64 noundef %2, i8 noundef zeroext %3, i32 %4, ptr noundef %5, i32 %6, i32 %7) unnamed_addr #1 align 2 {
  %9 = alloca %class.Register, align 4
  %10 = alloca %class.Register, align 4
  %11 = alloca %class.Register, align 4
  %12 = alloca ptr, align 8
  %13 = alloca ptr, align 8
  %14 = alloca i64, align 8
  %15 = alloca i8, align 1
  %16 = alloca ptr, align 8
  %17 = alloca i8, align 1
  %18 = alloca i8, align 1
  %19 = alloca i8, align 1
  %20 = alloca i8, align 1
  %21 = alloca %class.Register, align 4
  %22 = alloca %class.Address, align 8
  %23 = alloca %class.Register, align 4
  %24 = alloca %class.Register, align 4
  %25 = alloca %class.Register, align 4
  %26 = alloca %class.Register, align 4
  %27 = alloca %class.Register, align 4
  %28 = alloca %class.Register, align 4
  %29 = alloca %class.Register, align 4
  %30 = getelementptr inbounds %class.Register, ptr %9, i32 0, i32 0
  store i32 %4, ptr %30, align 4
  %31 = getelementptr inbounds %class.Register, ptr %10, i32 0, i32 0
  store i32 %6, ptr %31, align 4
  %32 = getelementptr inbounds %class.Register, ptr %11, i32 0, i32 0
  store i32 %7, ptr %32, align 4
  store ptr %0, ptr %12, align 8
  store ptr %1, ptr %13, align 8
  store i64 %2, ptr %14, align 8
  store i8 %3, ptr %15, align 1
  store ptr %5, ptr %16, align 8
  %33 = load ptr, ptr %12, align 8
  %34 = load i8, ptr %15, align 1
  %35 = call noundef zeroext i1 @_Z17is_reference_type9BasicTypeb(i8 noundef zeroext %34, i1 noundef zeroext false)
  %36 = zext i1 %35 to i8
  store i8 %36, ptr %17, align 1
  %37 = load i64, ptr %14, align 8
  %38 = and i64 %37, 32768
  %39 = icmp ne i64 %38, 0
  %40 = zext i1 %39 to i8
  store i8 %40, ptr %18, align 1
  %41 = load i64, ptr %14, align 8
  %42 = and i64 %41, 65536
  %43 = icmp ne i64 %42, 0
  %44 = zext i1 %43 to i8
  store i8 %44, ptr %19, align 1
  %45 = load i8, ptr %18, align 1
  %46 = trunc i8 %45 to i1
  br i1 %46, label %50, label %47

47:                                               ; preds = %8
  %48 = load i8, ptr %19, align 1
  %49 = trunc i8 %48 to i1
  br label %50

50:                                               ; preds = %47, %8
  %51 = phi i1 [ true, %8 ], [ %49, %47 ]
  %52 = zext i1 %51 to i8
  store i8 %52, ptr %20, align 1
  %53 = load ptr, ptr %13, align 8
  %54 = load i64, ptr %14, align 8
  %55 = load i8, ptr %15, align 1
  call void @llvm.memcpy.p0.p0.i64(ptr align 4 %21, ptr align 4 %9, i64 4, i1 false)
  call void @_ZN7AddressC2ERKS_(ptr noundef nonnull align 8 dereferenceable(64) %22, ptr noundef nonnull align 8 dereferenceable(64) %5)
  call void @llvm.memcpy.p0.p0.i64(ptr align 4 %23, ptr align 4 %10, i64 4, i1 false)
  call void @llvm.memcpy.p0.p0.i64(ptr align 4 %24, ptr align 4 %11, i64 4, i1 false)
  %56 = getelementptr inbounds %class.Register, ptr %21, i32 0, i32 0
  %57 = load i32, ptr %56, align 4
  %58 = getelementptr inbounds %class.Register, ptr %23, i32 0, i32 0
  %59 = load i32, ptr %58, align 4
  %60 = getelementptr inbounds %class.Register, ptr %24, i32 0, i32 0
  %61 = load i32, ptr %60, align 4
  call void @_ZN19BarrierSetAssembler7load_atEP14MacroAssemblerm9BasicType8Register7AddressS3_S3_(ptr noundef nonnull align 8 dereferenceable(8) %33, ptr noundef %53, i64 noundef %54, i8 noundef zeroext %55, i32 %57, ptr noundef %22, i32 %59, i32 %61)
  %62 = load i8, ptr %17, align 1
  %63 = trunc i8 %62 to i1
  br i1 %63, label %64, label %77

64:                                               ; preds = %50
  %65 = load i8, ptr %20, align 1
  %66 = trunc i8 %65 to i1
  br i1 %66, label %67, label %77

67:                                               ; preds = %64
  call void @llvm.memcpy.p0.p0.i64(ptr align 4 %25, ptr align 4 @_ZL10r15_thread, i64 4, i1 false)
  %68 = load ptr, ptr %13, align 8
  call void @llvm.memcpy.p0.p0.i64(ptr align 4 %26, ptr align 4 @_ZL5noreg, i64 4, i1 false)
  call void @llvm.memcpy.p0.p0.i64(ptr align 4 %27, ptr align 4 %9, i64 4, i1 false)
  call void @llvm.memcpy.p0.p0.i64(ptr align 4 %28, ptr align 4 %25, i64 4, i1 false)
  call void @llvm.memcpy.p0.p0.i64(ptr align 4 %29, ptr align 4 %10, i64 4, i1 false)
  %69 = getelementptr inbounds %class.Register, ptr %26, i32 0, i32 0
  %70 = load i32, ptr %69, align 4
  %71 = getelementptr inbounds %class.Register, ptr %27, i32 0, i32 0
  %72 = load i32, ptr %71, align 4
  %73 = getelementptr inbounds %class.Register, ptr %28, i32 0, i32 0
  %74 = load i32, ptr %73, align 4
  %75 = getelementptr inbounds %class.Register, ptr %29, i32 0, i32 0
  %76 = load i32, ptr %75, align 4
  call void @_ZN21G1BarrierSetAssembler20g1_write_barrier_preEP14MacroAssembler8RegisterS2_S2_S2_bb(ptr noundef nonnull align 8 dereferenceable(8) %33, ptr noundef %68, i32 %70, i32 %72, i32 %74, i32 %76, i1 noundef zeroext true, i1 noundef zeroext true)
  br label %77

77:                                               ; preds = %67, %64, %50
  ret void
}