; Function Attrs: mustprogress nounwind uwtable
define hidden void @_ZN21G1BarrierSetAssembler7load_atEP14MacroAssemblerm9BasicType8Register7AddressS3_S3_(ptr noundef nonnull align 8 dereferenceable(8) %0, ptr noundef %1, i64 noundef %2, i8 noundef zeroext %3, i32 %4, ptr noundef %5, i32 %6, i32 %7) unnamed_addr #0 align 2 {
_Z17is_reference_type9BasicTypeb.exit:
  %8 = alloca %class.Address, align 8
  %9 = and i8 %3, -2
  %or.cond.i = icmp ne i8 %9, 12
  call void @llvm.memcpy.p0.p0.i64(ptr noundef nonnull align 8 dereferenceable(21) %8, ptr noundef nonnull align 8 dereferenceable(21) %5, i64 21, i1 false)
  %10 = getelementptr inbounds i8, ptr %8, i64 24
  %11 = getelementptr inbounds i8, ptr %5, i64 24
  %12 = load ptr, ptr %11, align 8
  %13 = getelementptr inbounds i8, ptr %12, i64 16
  %14 = load ptr, ptr %13, align 8
  call void %14(ptr noundef nonnull align 8 dereferenceable(20) %11, ptr noundef nonnull align 8 dereferenceable(40) %10) #4
  call void @_ZN19BarrierSetAssembler7load_atEP14MacroAssemblerm9BasicType8Register7AddressS3_S3_(ptr noundef nonnull align 8 dereferenceable(8) %0, ptr noundef %1, i64 noundef %2, i8 noundef zeroext %3, i32 %4, ptr noundef nonnull %8, i32 %6, i32 %7) #4
  %15 = and i64 %2, 98304
  %.not = icmp eq i64 %15, 0
  %or.cond = or i1 %.not, %or.cond.i
  br i1 %or.cond, label %17, label %16

16:                                               ; preds = %_Z17is_reference_type9BasicTypeb.exit
  call void @_ZN21G1BarrierSetAssembler20g1_write_barrier_preEP14MacroAssembler8RegisterS2_S2_S2_bb(ptr nonnull align 8 poison, ptr noundef %1, i32 -1, i32 %4, i32 15, i32 %6, i1 zeroext poison, i1 noundef zeroext true)
  br label %17

17:                                               ; preds = %16, %_Z17is_reference_type9BasicTypeb.exit
  ret void
}